target datalayout = "e-m:e-p270:32:32-p271:32:32-p272:64:64-i64:64-i128:128-f80:128-n8:16:32:64-S128"
target triple = "x86_64-pc-linux-gnu"

%struct.lstopo_cairo_output = type { ptr, ptr, ptr }
%struct.lstopo_output = type { ptr, i32, i32, i32, ptr, i32, i32, i32, i32, i32, i32, i32, i32, ptr, ptr, i32, i32, i64, i64, i64, i32, [3 x [128 x i8]], i32, i32, ptr, i32, i32, i32, i32, i32, i32, %struct.hwloc_calc_level, i32, i32, i32, i64, [256 x i8], i32, i32, i32, i32, i32, float, [20 x i32], i32, i32, i32, [20 x i32], i32, [20 x i32], i32, [20 x i32], i32, i32, i32, i32, ptr, ptr, i32, [20 x i32], [20 x i32], [20 x i32], ptr, ptr, i64, ptr, i32, i32, i32 }
%struct.hwloc_calc_level = type { i32, i32, %union.hwloc_obj_attr_u, [32 x i8], i32, i32, i32, i32 }
%union.hwloc_obj_attr_u = type { %struct.hwloc_numanode_attr_s, [24 x i8] }
%struct.hwloc_numanode_attr_s = type { i64, i32, ptr }

; Function Attrs: nounwind uwtable
define internal void @topo_cairo_line(ptr noundef %0, i32 noundef %1, i32 noundef %2, i32 noundef %3, i32 noundef %4, i32 noundef %5, ptr noundef %6, i32 noundef %7) #0 {
  %9 = alloca ptr, align 8
  %10 = alloca i32, align 4
  %11 = alloca i32, align 4
  %12 = alloca i32, align 4
  %13 = alloca i32, align 4
  %14 = alloca i32, align 4
  %15 = alloca ptr, align 8
  %16 = alloca i32, align 4
  %17 = alloca ptr, align 8
  %18 = alloca ptr, align 8
  store ptr %0, ptr %9, align 8, !tbaa !4
  store i32 %1, ptr %10, align 4, !tbaa !13
  store i32 %2, ptr %11, align 4, !tbaa !13
  store i32 %3, ptr %12, align 4, !tbaa !13
  store i32 %4, ptr %13, align 4, !tbaa !13
  store i32 %5, ptr %14, align 4, !tbaa !13
  store ptr %6, ptr %15, align 8, !tbaa !112
  store i32 %7, ptr %16, align 4, !tbaa !13
  call void @llvm.lifetime.start.p0(i64 8, ptr %17) #10
  %19 = load ptr, ptr %9, align 8, !tbaa !4
  %20 = getelementptr inbounds nuw %struct.lstopo_output, ptr %19, i32 0, i32 63
  %21 = load ptr, ptr %20, align 8, !tbaa !21
  store ptr %21, ptr %17, align 8, !tbaa !15
  call void @llvm.lifetime.start.p0(i64 8, ptr %18) #10
  %22 = load ptr, ptr %17, align 8, !tbaa !15
  %23 = getelementptr inbounds nuw %struct.lstopo_cairo_output, ptr %22, i32 0, i32 2
  %24 = load ptr, ptr %23, align 8, !tbaa !105
  store ptr %24, ptr %18, align 8, !tbaa !104
  %25 = load ptr, ptr %18, align 8, !tbaa !104
  %26 = load i32, ptr %11, align 4, !tbaa !13
  %27 = uitofp i32 %26 to double
  %28 = load i32, ptr %12, align 4, !tbaa !13
  %29 = uitofp i32 %28 to double
  call void @cairo_move_to(ptr noundef %25, double noundef %27, double noundef %29)
  %30 = load ptr, ptr %18, align 8, !tbaa !104
  call void @cairo_set_source_rgb(ptr noundef %30, double noundef 0.000000e+00, double noundef 0.000000e+00, double noundef 0.000000e+00)
  %31 = load ptr, ptr %18, align 8, !tbaa !104
  %32 = load i32, ptr %13, align 4, !tbaa !13
  %33 = uitofp i32 %32 to double
  %34 = load i32, ptr %14, align 4, !tbaa !13
  %35 = uitofp i32 %34 to double
  call void @cairo_line_to(ptr noundef %31, double noundef %33, double noundef %35)
  %36 = load ptr, ptr %18, align 8, !tbaa !104
  call void @cairo_stroke(ptr noundef %36)
  call void @llvm.lifetime.end.p0(i64 8, ptr %18) #10
  call void @llvm.lifetime.end.p0(i64 8, ptr %17) #10
  ret void
}