; Function Attrs: nounwind uwtable
define internal void @topo_cairo_line(ptr noundef readonly captures(none) %0, i32 %1, i32 noundef %2, i32 noundef %3, i32 noundef %4, i32 noundef %5, ptr readnone captures(none) %6, i32 %7) #0 {
  %9 = getelementptr inbounds nuw i8, ptr %0, i64 1584
  %10 = load ptr, ptr %9, align 8, !tbaa !12
  %11 = getelementptr inbounds nuw i8, ptr %10, i64 16
  %12 = load ptr, ptr %11, align 8, !tbaa !55
  %13 = uitofp i32 %2 to double
  %14 = uitofp i32 %3 to double
  tail call void @cairo_move_to(ptr noundef %12, double noundef %13, double noundef %14) #13
  tail call void @cairo_set_source_rgb(ptr noundef %12, double noundef 0.000000e+00, double noundef 0.000000e+00, double noundef 0.000000e+00) #13
  %15 = uitofp i32 %4 to double
  %16 = uitofp i32 %5 to double
  tail call void @cairo_line_to(ptr noundef %12, double noundef %15, double noundef %16) #13
  tail call void @cairo_stroke(ptr noundef %12) #13
  ret void
}